; Function Attrs: mustprogress nounwind uwtable
define { i32, ptr } @_ZNK5folly10symbolizer7ElfFile12posixFadviseElli(ptr noundef nonnull readonly align 8 captures(none) dereferenceable(576) %0, i64 noundef %1, i64 noundef %2, i32 noundef %3) local_unnamed_addr #4 align 2 personality ptr @__gxx_personality_v0 {
  %5 = getelementptr inbounds nuw i8, ptr %0, i64 512
  %6 = load i32, ptr %5, align 8, !tbaa !10
  %7 = icmp eq i32 %6, -1
  br i1 %7, label %10, label %8

8:                                                ; preds = %4
  %9 = tail call i32 @posix_fadvise(i32 noundef %6, i64 noundef %1, i64 noundef %2, i32 noundef %3) #27
  %.not = icmp eq i32 %9, 0
  %spec.select5 = select i1 %.not, ptr @.str.51, ptr @.str.50
  br label %10

10:                                               ; preds = %8, %4
  %.sroa.0.0 = phi i32 [ 1, %4 ], [ %9, %8 ]
  %.sroa.4.0 = phi ptr [ @.str.49, %4 ], [ %spec.select5, %8 ]
  %.fca.0.insert = insertvalue { i32, ptr } poison, i32 %.sroa.0.0, 0
  %.fca.1.insert = insertvalue { i32, ptr } %.fca.0.insert, ptr %.sroa.4.0, 1
  ret { i32, ptr } %.fca.1.insert
}